target datalayout = "e-m:e-p270:32:32-p271:32:32-p272:64:64-i64:64-i128:128-f80:128-n8:16:32:64-S128"
target triple = "x86_64-pc-linux-gnu"

@.str = private unnamed_addr constant [28 x i8] c"../openssl/test/rand_test.c\00", align 1
@.str.15 = private unnamed_addr constant [2 x i8] c"0\00", align 1
@.str.24 = private unnamed_addr constant [4 x i8] c"err\00", align 1
@.str.25 = private unnamed_addr constant [2 x i8] c"x\00", align 1
@.str.26 = private unnamed_addr constant [2 x i8] c"i\00", align 1
@.str.27 = private unnamed_addr constant [2 x i8] c"j\00", align 1

; Function Attrs: nounwind uwtable
define internal i32 @test_rand_uniform() #0 {
  %1 = alloca i32, align 4
  %2 = alloca i32, align 4
  %3 = alloca i32, align 4
  %4 = alloca i32, align 4
  %5 = alloca i32, align 4
  %6 = alloca i32, align 4
  %7 = alloca ptr, align 8
  %8 = alloca i32, align 4
  call void @llvm.lifetime.start.p0(i64 4, ptr %2) #8
  call void @llvm.lifetime.start.p0(i64 4, ptr %3) #8
  call void @llvm.lifetime.start.p0(i64 4, ptr %4) #8
  call void @llvm.lifetime.start.p0(i64 4, ptr %5) #8
  store i32 0, ptr %5, align 4, !tbaa !9
  call void @llvm.lifetime.start.p0(i64 4, ptr %6) #8
  store i32 0, ptr %6, align 4, !tbaa !9
  call void @llvm.lifetime.start.p0(i64 8, ptr %7) #8
  %9 = call i32 @test_get_libctx(ptr noundef %7, ptr noundef null, ptr noundef null, ptr noundef null, ptr noundef null)
  %10 = icmp ne i32 %9, 0
  br i1 %10, label %12, label %11

11:                                               ; preds = %0
  br label %75

12:                                               ; preds = %0
  store i32 1, ptr %3, align 4, !tbaa !9
  br label %13

13:                                               ; preds = %34, %12
  %14 = load i32, ptr %3, align 4, !tbaa !9
  %15 = icmp ult i32 %14, 100
  br i1 %15, label %16, label %37

16:                                               ; preds = %13
  %17 = load ptr, ptr %7, align 8, !tbaa !21
  %18 = load i32, ptr %3, align 4, !tbaa !9
  %19 = call i32 @ossl_rand_uniform_uint32(ptr noundef %17, i32 noundef %18, ptr noundef %5)
  store i32 %19, ptr %2, align 4, !tbaa !9
  %20 = load i32, ptr %5, align 4, !tbaa !9
  %21 = call i32 @test_int_eq(ptr noundef @.str, i32 noundef 77, ptr noundef @.str.24, ptr noundef @.str.15, i32 noundef %20, i32 noundef 0)
  %22 = icmp ne i32 %21, 0
  br i1 %22, label %23, label %32

23:                                               ; preds = %16
  %24 = load i32, ptr %2, align 4, !tbaa !9
  %25 = call i32 @test_uint_ge(ptr noundef @.str, i32 noundef 78, ptr noundef @.str.25, ptr noundef @.str.15, i32 noundef %24, i32 noundef 0)
  %26 = icmp ne i32 %25, 0
  br i1 %26, label %27, label %32

27:                                               ; preds = %23
  %28 = load i32, ptr %2, align 4, !tbaa !9
  %29 = load i32, ptr %3, align 4, !tbaa !9
  %30 = call i32 @test_uint_lt(ptr noundef @.str, i32 noundef 79, ptr noundef @.str.25, ptr noundef @.str.26, i32 noundef %28, i32 noundef %29)
  %31 = icmp ne i32 %30, 0
  br i1 %31, label %33, label %32

32:                                               ; preds = %27, %23, %16
  store i32 0, ptr %1, align 4
  store i32 1, ptr %8, align 4
  br label %78

33:                                               ; preds = %27
  br label %34

34:                                               ; preds = %33
  %35 = load i32, ptr %3, align 4, !tbaa !9
  %36 = add i32 %35, 13
  store i32 %36, ptr %3, align 4, !tbaa !9
  br label %13, !llvm.loop !23

37:                                               ; preds = %13
  store i32 1, ptr %3, align 4, !tbaa !9
  br label %38

38:                                               ; preds = %71, %37
  %39 = load i32, ptr %3, align 4, !tbaa !9
  %40 = icmp ult i32 %39, 100
  br i1 %40, label %41, label %74

41:                                               ; preds = %38
  %42 = load i32, ptr %3, align 4, !tbaa !9
  %43 = add i32 %42, 1
  store i32 %43, ptr %4, align 4, !tbaa !9
  br label %44

44:                                               ; preds = %67, %41
  %45 = load i32, ptr %4, align 4, !tbaa !9
  %46 = icmp ult i32 %45, 150
  br i1 %46, label %47, label %70

47:                                               ; preds = %44
  %48 = load ptr, ptr %7, align 8, !tbaa !21
  %49 = load i32, ptr %3, align 4, !tbaa !9
  %50 = load i32, ptr %4, align 4, !tbaa !9
  %51 = call i32 @ossl_rand_range_uint32(ptr noundef %48, i32 noundef %49, i32 noundef %50, ptr noundef %5)
  store i32 %51, ptr %2, align 4, !tbaa !9
  %52 = load i32, ptr %5, align 4, !tbaa !9
  %53 = call i32 @test_int_eq(ptr noundef @.str, i32 noundef 85, ptr noundef @.str.24, ptr noundef @.str.15, i32 noundef %52, i32 noundef 0)
  %54 = icmp ne i32 %53, 0
  br i1 %54, label %55, label %65

55:                                               ; preds = %47
  %56 = load i32, ptr %2, align 4, !tbaa !9
  %57 = load i32, ptr %3, align 4, !tbaa !9
  %58 = call i32 @test_uint_ge(ptr noundef @.str, i32 noundef 86, ptr noundef @.str.25, ptr noundef @.str.26, i32 noundef %56, i32 noundef %57)
  %59 = icmp ne i32 %58, 0
  br i1 %59, label %60, label %65

60:                                               ; preds = %55
  %61 = load i32, ptr %2, align 4, !tbaa !9
  %62 = load i32, ptr %4, align 4, !tbaa !9
  %63 = call i32 @test_uint_lt(ptr noundef @.str, i32 noundef 87, ptr noundef @.str.25, ptr noundef @.str.27, i32 noundef %61, i32 noundef %62)
  %64 = icmp ne i32 %63, 0
  br i1 %64, label %66, label %65

65:                                               ; preds = %60, %55, %47
  store i32 0, ptr %1, align 4
  store i32 1, ptr %8, align 4
  br label %78

66:                                               ; preds = %60
  br label %67

67:                                               ; preds = %66
  %68 = load i32, ptr %4, align 4, !tbaa !9
  %69 = add i32 %68, 11
  store i32 %69, ptr %4, align 4, !tbaa !9
  br label %44, !llvm.loop !25

70:                                               ; preds = %44
  br label %71

71:                                               ; preds = %70
  %72 = load i32, ptr %3, align 4, !tbaa !9
  %73 = add i32 %72, 17
  store i32 %73, ptr %3, align 4, !tbaa !9
  br label %38, !llvm.loop !26

74:                                               ; preds = %38
  store i32 1, ptr %6, align 4, !tbaa !9
  br label %75

75:                                               ; preds = %74, %11
  %76 = load ptr, ptr %7, align 8, !tbaa !21
  call void @OSSL_LIB_CTX_free(ptr noundef %76)
  %77 = load i32, ptr %6, align 4, !tbaa !9
  store i32 %77, ptr %1, align 4
  store i32 1, ptr %8, align 4
  br label %78

78:                                               ; preds = %75, %65, %32
  call void @llvm.lifetime.end.p0(i64 8, ptr %7) #8
  call void @llvm.lifetime.end.p0(i64 4, ptr %6) #8
  call void @llvm.lifetime.end.p0(i64 4, ptr %5) #8
  call void @llvm.lifetime.end.p0(i64 4, ptr %4) #8
  call void @llvm.lifetime.end.p0(i64 4, ptr %3) #8
  call void @llvm.lifetime.end.p0(i64 4, ptr %2) #8
  %79 = load i32, ptr %1, align 4
  ret i32 %79
}