; Function Attrs: nounwind uwtable
define internal range(i32 0, 2) i32 @test_rand_uniform() #0 {
  %1 = alloca i32, align 4
  %2 = alloca ptr, align 8
  call void @llvm.lifetime.start.p0(i64 4, ptr nonnull %1) #11
  store i32 0, ptr %1, align 4, !tbaa !4
  call void @llvm.lifetime.start.p0(i64 8, ptr nonnull %2) #11
  %3 = call i32 @test_get_libctx(ptr noundef nonnull %2, ptr noundef null, ptr noundef null, ptr noundef null, ptr noundef null) #11
  %.not = icmp eq i32 %3, 0
  br i1 %.not, label %.loopexit28, label %.preheader29

4:                                                ; preds = %13
  %5 = add nuw nsw i32 %.02031, 13
  %6 = icmp samesign ult i32 %.02031, 87
  br i1 %6, label %.preheader29, label %.lr.ph.preheader, !llvm.loop !15

.preheader29:                                     ; preds = %0, %4
  %.02031 = phi i32 [ %5, %4 ], [ 1, %0 ]
  %7 = load ptr, ptr %2, align 8, !tbaa !17
  %8 = call i32 @ossl_rand_uniform_uint32(ptr noundef %7, i32 noundef %.02031, ptr noundef nonnull %1) #11
  %9 = load i32, ptr %1, align 4, !tbaa !4
  %10 = call i32 @test_int_eq(ptr noundef nonnull @.str, i32 noundef 77, ptr noundef nonnull @.str.24, ptr noundef nonnull @.str.15, i32 noundef %9, i32 noundef 0) #11
  %.not25 = icmp eq i32 %10, 0
  br i1 %.not25, label %.loopexit, label %11

11:                                               ; preds = %.preheader29
  %12 = call i32 @test_uint_ge(ptr noundef nonnull @.str, i32 noundef 78, ptr noundef nonnull @.str.25, ptr noundef nonnull @.str.15, i32 noundef %8, i32 noundef 0) #11
  %.not26 = icmp eq i32 %12, 0
  br i1 %.not26, label %.loopexit, label %13

13:                                               ; preds = %11
  %14 = call i32 @test_uint_lt(ptr noundef nonnull @.str, i32 noundef 79, ptr noundef nonnull @.str.25, ptr noundef nonnull @.str.26, i32 noundef %8, i32 noundef %.02031) #11
  %.not27 = icmp eq i32 %14, 0
  br i1 %.not27, label %.loopexit, label %4

.lr.ph.preheader:                                 ; preds = %4, %._crit_edge
  %.133 = phi i32 [ %27, %._crit_edge ], [ 1, %4 ]
  %15 = add nuw nsw i32 %.133, 1
  br label %.lr.ph

16:                                               ; preds = %25
  %17 = add nuw nsw i32 %.01932, 11
  %18 = icmp samesign ult i32 %.01932, 139
  br i1 %18, label %.lr.ph, label %._crit_edge, !llvm.loop !19

.lr.ph:                                           ; preds = %.lr.ph.preheader, %16
  %.01932 = phi i32 [ %17, %16 ], [ %15, %.lr.ph.preheader ]
  %19 = load ptr, ptr %2, align 8, !tbaa !17
  %20 = call i32 @ossl_rand_range_uint32(ptr noundef %19, i32 noundef %.133, i32 noundef %.01932, ptr noundef nonnull %1) #11
  %21 = load i32, ptr %1, align 4, !tbaa !4
  %22 = call i32 @test_int_eq(ptr noundef nonnull @.str, i32 noundef 85, ptr noundef nonnull @.str.24, ptr noundef nonnull @.str.15, i32 noundef %21, i32 noundef 0) #11
  %.not22 = icmp eq i32 %22, 0
  br i1 %.not22, label %.loopexit, label %23

23:                                               ; preds = %.lr.ph
  %24 = call i32 @test_uint_ge(ptr noundef nonnull @.str, i32 noundef 86, ptr noundef nonnull @.str.25, ptr noundef nonnull @.str.26, i32 noundef %20, i32 noundef %.133) #11
  %.not23 = icmp eq i32 %24, 0
  br i1 %.not23, label %.loopexit, label %25

25:                                               ; preds = %23
  %26 = call i32 @test_uint_lt(ptr noundef nonnull @.str, i32 noundef 87, ptr noundef nonnull @.str.25, ptr noundef nonnull @.str.27, i32 noundef %20, i32 noundef %.01932) #11
  %.not24 = icmp eq i32 %26, 0
  br i1 %.not24, label %.loopexit, label %16

._crit_edge:                                      ; preds = %16
  %27 = add nuw nsw i32 %.133, 17
  %28 = icmp samesign ult i32 %.133, 83
  br i1 %28, label %.lr.ph.preheader, label %.loopexit28, !llvm.loop !20

.loopexit28:                                      ; preds = %._crit_edge, %0
  %.0 = phi i32 [ 0, %0 ], [ 1, %._crit_edge ]
  %29 = load ptr, ptr %2, align 8, !tbaa !17
  call void @OSSL_LIB_CTX_free(ptr noundef %29) #11
  br label %.loopexit

.loopexit:                                        ; preds = %.preheader29, %11, %13, %.lr.ph, %23, %25, %.loopexit28
  %.021 = phi i32 [ %.0, %.loopexit28 ], [ 0, %25 ], [ 0, %23 ], [ 0, %.lr.ph ], [ 0, %13 ], [ 0, %11 ], [ 0, %.preheader29 ]
  call void @llvm.lifetime.end.p0(i64 8, ptr nonnull %2) #11
  call void @llvm.lifetime.end.p0(i64 4, ptr nonnull %1) #11
  ret i32 %.021
}